target datalayout = "e-m:e-p270:32:32-p271:32:32-p272:64:64-i64:64-i128:128-f80:128-n8:16:32:64-S128"
target triple = "x86_64-unknown-linux-gnu"

%"struct.folly::unsafe_default_initialized_cv" = type { i8 }
%"class.std::__cxx11::basic_string" = type { %"struct.std::__cxx11::basic_string<char>::_Alloc_hider", i64, %union.anon }
%"struct.std::__cxx11::basic_string<char>::_Alloc_hider" = type { ptr }
%union.anon = type { i64, [8 x i8] }
%"class.folly::Range" = type { ptr, ptr }
%"class.folly::Formatter" = type { %"class.folly::BaseFormatterImpl.base", [7 x i8] }
%"class.folly::BaseFormatterImpl.base" = type <{ %"struct.folly::detail::BaseFormatterBase", %"struct.folly::detail::BaseFormatterTuple" }>
%"struct.folly::detail::BaseFormatterBase" = type { %"class.folly::Range" }
%"struct.folly::detail::BaseFormatterTuple" = type { %"struct.folly::detail::BaseFormatterTupleIndexedValue" }
%"struct.folly::detail::BaseFormatterTupleIndexedValue" = type { i8 }
%"class.folly::BaseFormatterImpl" = type <{ %"struct.folly::detail::BaseFormatterBase", %"struct.folly::detail::BaseFormatterTuple", [7 x i8] }>
%"struct.folly::detail::BaseFormatterAppendToString" = type { ptr }

@.str = private unnamed_addr constant [7 x i8] c"{:02x}\00", align 1
@__const._ZNK5folly17BaseFormatterImplINS_9FormatterILb0EJhEEELb0ESt16integer_sequenceImJLm0EEEJhEEclINS_6detail27BaseFormatterAppendToStringINSt7__cxx1112basic_stringIcSt11char_traitsIcESaIcEEEEEEEvRT_.in = private unnamed_addr constant %"struct.folly::unsafe_default_initialized_cv" undef, align 1

; Function Attrs: mustprogress nounwind uwtable
define linkonce_odr noundef i32 @_ZNK5folly17BaseFormatterImplINS_9FormatterILb0EJhEEELb0ESt16integer_sequenceImJLm0EEEJhEE12getSizeArgAtILm0EhEEiSt17integral_constantIbLb1EE(ptr noundef nonnull align 8 dereferenceable(17) %this) #2 comdat align 2 {
entry:
  %this.addr = alloca ptr, align 8
  store ptr %this, ptr %this.addr, align 8
  %this1 = load ptr, ptr %this.addr, align 8
  %values_ = getelementptr inbounds %"class.folly::BaseFormatterImpl", ptr %this1, i32 0, i32 1
  %value = getelementptr inbounds %"struct.folly::detail::BaseFormatterTupleIndexedValue", ptr %values_, i32 0, i32 0
  %0 = load i8, ptr %value, align 8
  %conv = zext i8 %0 to i32
  ret i32 %conv
}

; Function Attrs: mustprogress uwtable
define linkonce_odr void @_ZNK5folly17BaseFormatterImplINS_9FormatterILb0EJhEEELb0ESt16integer_sequenceImJLm0EEEJhEE10getSizeArgEPi(ptr noundef nonnull align 8 dereferenceable(17) %this, ptr noundef %out) #1 comdat align 2 {
entry:
  %this.addr = alloca ptr, align 8
  %out.addr = alloca ptr, align 8
  %agg.tmp.ensured = alloca [2 x i32], align 4
  store ptr %this, ptr %this.addr, align 8
  store ptr %out, ptr %out.addr, align 8
  %this1 = load ptr, ptr %this.addr, align 8
  %arrayinit.begin = getelementptr inbounds [2 x i32], ptr %agg.tmp.ensured, i64 0, i64 0
  %call = call noundef i32 @_ZNK5folly17BaseFormatterImplINS_9FormatterILb0EJhEEELb0ESt16integer_sequenceImJLm0EEEJhEE12getSizeArgAtILm0EhEEiSt17integral_constantIbLb1EE(ptr noundef nonnull align 8 dereferenceable(17) %this1)
  %0 = load ptr, ptr %out.addr, align 8
  %arrayidx = getelementptr inbounds i32, ptr %0, i64 0
  store i32 %call, ptr %arrayidx, align 4
  store i32 %call, ptr %arrayinit.begin, align 4
  %arrayinit.element = getelementptr inbounds i32, ptr %arrayinit.begin, i64 1
  store i32 0, ptr %arrayinit.element, align 4
  ret void
}

; Function Attrs: mustprogress uwtable
define linkonce_odr void @_ZNK5folly17BaseFormatterImplINS_9FormatterILb0EJhEEELb0ESt16integer_sequenceImJLm0EEEJhEEclINS_6detail27BaseFormatterAppendToStringINSt7__cxx1112basic_stringIcSt11char_traitsIcESaIcEEEEEEEvRT_(ptr noundef nonnull align 8 dereferenceable(17) %this, ptr noundef nonnull align 8 dereferenceable(8) %out) #1 comdat align 2 {
entry:
  %this.addr = alloca ptr, align 8
  %out.addr = alloca ptr, align 8
  %nargs = alloca i64, align 8
  %used = alloca ptr, align 8
  %in = alloca %"struct.folly::unsafe_default_initialized_cv", align 1
  %widths = alloca [2 x i32], align 4
  store ptr %this, ptr %this.addr, align 8
  store ptr %out, ptr %out.addr, align 8
  %this1 = load ptr, ptr %this.addr, align 8
  store i64 1, ptr %nargs, align 8
  store ptr @_ZN5folly6detail17BaseFormatterBase13recordUsedArgERKS1_m, ptr %used, align 8
  call void @llvm.memcpy.p0.p0.i64(ptr align 1 %in, ptr align 1 @__const._ZNK5folly17BaseFormatterImplINS_9FormatterILb0EJhEEELb0ESt16integer_sequenceImJLm0EEEJhEEclINS_6detail27BaseFormatterAppendToStringINSt7__cxx1112basic_stringIcSt11char_traitsIcESaIcEEEEEEEvRT_.in, i64 1, i1 false)
  call void @llvm.memset.p0.i64(ptr align 4 %widths, i8 0, i64 8, i1 false)
  %arraydecay = getelementptr inbounds [2 x i32], ptr %widths, i64 0, i64 0
  call void @_ZNK5folly17BaseFormatterImplINS_9FormatterILb0EJhEEELb0ESt16integer_sequenceImJLm0EEEJhEE10getSizeArgEPi(ptr noundef nonnull align 8 dereferenceable(17) %this1, ptr noundef %arraydecay)
  %0 = load ptr, ptr %out.addr, align 8
  %arraydecay2 = getelementptr inbounds [2 x i32], ptr %widths, i64 0, i64 0
  call void @_ZN5folly6detail21baseFormatterCallImplILb0ELb0ENS0_27BaseFormatterAppendToStringINSt7__cxx1112basic_stringIcSt11char_traitsIcESaIcEEEEEEEvRT1_mPKiPFSt17integral_constantIbXT0_EERKNS0_17BaseFormatterBaseEmEPKPFvSI_RNS_9FormatArgESB_ESI_(ptr noundef nonnull align 8 dereferenceable(8) %0, i64 noundef 1, ptr noundef %arraydecay2, ptr noundef @_ZN5folly6detail17BaseFormatterBase13recordUsedArgERKS1_m, ptr noundef @_ZZNK5folly17BaseFormatterImplINS_9FormatterILb0EJhEEELb0ESt16integer_sequenceImJLm0EEEJhEEclINS_6detail27BaseFormatterAppendToStringINSt7__cxx1112basic_stringIcSt11char_traitsIcESaIcEEEEEEEvRT_E4funsB5cxx11, ptr noundef nonnull align 8 dereferenceable(16) %this1)
  ret void
}

; Function Attrs: mustprogress nounwind uwtable
define linkonce_odr void @_ZN5folly6detail18BaseFormatterTupleISt16integer_sequenceImJLm0EEEJhEEC2ESt10in_place_tOh(ptr noundef nonnull align 1 dereferenceable(1) %this, ptr noundef nonnull align 1 dereferenceable(1) %a) unnamed_addr #2 comdat align 2 {
entry:
  %this.addr = alloca ptr, align 8
  %a.addr = alloca ptr, align 8
  store ptr %this, ptr %this.addr, align 8
  store ptr %a, ptr %a.addr, align 8
  %this1 = load ptr, ptr %this.addr, align 8
  %value = getelementptr inbounds %"struct.folly::detail::BaseFormatterTupleIndexedValue", ptr %this1, i32 0, i32 0
  %0 = load ptr, ptr %a.addr, align 8
  %1 = load i8, ptr %0, align 1
  store i8 %1, ptr %value, align 1
  ret void
}

; Function Attrs: mustprogress uwtable
define linkonce_odr void @_ZNK5folly17BaseFormatterImplINS_9FormatterILb0EJhEEELb0ESt16integer_sequenceImJLm0EEEJhEE8appendToINSt7__cxx1112basic_stringIcSt11char_traitsIcESaIcEEEEENSt9enable_ifIXsr12IsSomeStringIT_EE5valueEvE4typeERSE_(ptr noundef nonnull align 8 dereferenceable(17) %this, ptr noundef nonnull align 8 dereferenceable(32) %str) #1 comdat align 2 {
entry:
  %this.addr = alloca ptr, align 8
  %str.addr = alloca ptr, align 8
  %out = alloca %"struct.folly::detail::BaseFormatterAppendToString", align 8
  store ptr %this, ptr %this.addr, align 8
  store ptr %str, ptr %str.addr, align 8
  %this1 = load ptr, ptr %this.addr, align 8
  %str2 = getelementptr inbounds %"struct.folly::detail::BaseFormatterAppendToString", ptr %out, i32 0, i32 0
  %0 = load ptr, ptr %str.addr, align 8
  store ptr %0, ptr %str2, align 8
  call void @_ZNK5folly17BaseFormatterImplINS_9FormatterILb0EJhEEELb0ESt16integer_sequenceImJLm0EEEJhEEclINS_6detail27BaseFormatterAppendToStringINSt7__cxx1112basic_stringIcSt11char_traitsIcESaIcEEEEEEEvRT_(ptr noundef nonnull align 8 dereferenceable(17) %this1, ptr noundef nonnull align 8 dereferenceable(8) %out)
  ret void
}

; Function Attrs: mustprogress uwtable
define linkonce_odr void @_ZN5folly17BaseFormatterImplINS_9FormatterILb0EJhEEELb0ESt16integer_sequenceImJLm0EEEJhEEC2ENS_5RangeIPKcEEOh(ptr noundef nonnull align 8 dereferenceable(17) %this, ptr %str.coerce0, ptr %str.coerce1, ptr noundef nonnull align 1 dereferenceable(1) %args) unnamed_addr #1 comdat align 2 {
entry:
  %str = alloca %"class.folly::Range", align 8
  %this.addr = alloca ptr, align 8
  %args.addr = alloca ptr, align 8
  %0 = getelementptr inbounds { ptr, ptr }, ptr %str, i32 0, i32 0
  store ptr %str.coerce0, ptr %0, align 8
  %1 = getelementptr inbounds { ptr, ptr }, ptr %str, i32 0, i32 1
  store ptr %str.coerce1, ptr %1, align 8
  store ptr %this, ptr %this.addr, align 8
  store ptr %args, ptr %args.addr, align 8
  %this1 = load ptr, ptr %this.addr, align 8
  %str_ = getelementptr inbounds %"struct.folly::detail::BaseFormatterBase", ptr %this1, i32 0, i32 0
  call void @llvm.memcpy.p0.p0.i64(ptr align 8 %str_, ptr align 8 %str, i64 16, i1 false)
  %values_ = getelementptr inbounds %"class.folly::BaseFormatterImpl", ptr %this1, i32 0, i32 1
  %2 = load ptr, ptr %args.addr, align 8
  call void @_ZN5folly6detail18BaseFormatterTupleISt16integer_sequenceImJLm0EEEJhEEC2ESt10in_place_tOh(ptr noundef nonnull align 1 dereferenceable(1) %values_, ptr noundef nonnull align 1 dereferenceable(1) %2)
  ret void
}

; Function Attrs: mustprogress nounwind uwtable
define linkonce_odr noundef i64 @_ZN5folly6detail25constexpr_strlen_internalIcLm0EEEmPKT_i(ptr noundef %s, i32 noundef %0) #2 comdat {
entry:
  %s.addr = alloca ptr, align 8
  %.addr = alloca i32, align 4
  store ptr %s, ptr %s.addr, align 8
  store i32 %0, ptr %.addr, align 4
  %1 = load ptr, ptr %s.addr, align 8
  %call = call i64 @strlen(ptr noundef %1) #3
  ret i64 %call
}

; Function Attrs: mustprogress uwtable
define linkonce_odr void @_ZNK5folly17BaseFormatterImplINS_9FormatterILb0EJhEEELb0ESt16integer_sequenceImJLm0EEEJhEE3strB5cxx11Ev(ptr noalias sret(%"class.std::__cxx11::basic_string") align 8 %agg.result, ptr noundef nonnull align 8 dereferenceable(17) %this) #1 comdat align 2 personality ptr @__gxx_personality_v0 {
entry:
  %result.ptr = alloca ptr, align 8
  %this.addr = alloca ptr, align 8
  %nrvo = alloca i1, align 1
  %exn.slot = alloca ptr, align 8
  %ehselector.slot = alloca i32, align 4
  store ptr %agg.result, ptr %result.ptr, align 8
  store ptr %this, ptr %this.addr, align 8
  %this1 = load ptr, ptr %this.addr, align 8
  store i1 false, ptr %nrvo, align 1
  call void @_ZNSt7__cxx1112basic_stringIcSt11char_traitsIcESaIcEEC1Ev(ptr noundef nonnull align 8 dereferenceable(32) %agg.result) #3
  invoke void @_ZNK5folly17BaseFormatterImplINS_9FormatterILb0EJhEEELb0ESt16integer_sequenceImJLm0EEEJhEE8appendToINSt7__cxx1112basic_stringIcSt11char_traitsIcESaIcEEEEENSt9enable_ifIXsr12IsSomeStringIT_EE5valueEvE4typeERSE_(ptr noundef nonnull align 8 dereferenceable(17) %this1, ptr noundef nonnull align 8 dereferenceable(32) %agg.result)
          to label %invoke.cont unwind label %lpad

invoke.cont:                                      ; preds = %entry
  store i1 true, ptr %nrvo, align 1
  %nrvo.val = load i1, ptr %nrvo, align 1
  br i1 %nrvo.val, label %nrvo.skipdtor, label %nrvo.unused

lpad:                                             ; preds = %entry
  %0 = landingpad { ptr, i32 }
          cleanup
  %1 = extractvalue { ptr, i32 } %0, 0
  store ptr %1, ptr %exn.slot, align 8
  %2 = extractvalue { ptr, i32 } %0, 1
  store i32 %2, ptr %ehselector.slot, align 4
  call void @_ZNSt7__cxx1112basic_stringIcSt11char_traitsIcESaIcEED1Ev(ptr noundef nonnull align 8 dereferenceable(32) %agg.result) #3
  br label %eh.resume

nrvo.unused:                                      ; preds = %invoke.cont
  call void @_ZNSt7__cxx1112basic_stringIcSt11char_traitsIcESaIcEED1Ev(ptr noundef nonnull align 8 dereferenceable(32) %agg.result) #3
  br label %nrvo.skipdtor

nrvo.skipdtor:                                    ; preds = %nrvo.unused, %invoke.cont
  ret void

eh.resume:                                        ; preds = %lpad
  %exn = load ptr, ptr %exn.slot, align 8
  %sel = load i32, ptr %ehselector.slot, align 4
  %lpad.val = insertvalue { ptr, i32 } poison, ptr %exn, 0
  %lpad.val2 = insertvalue { ptr, i32 } %lpad.val, i32 %sel, 1
  resume { ptr, i32 } %lpad.val2
}

; Function Attrs: mustprogress uwtable
define linkonce_odr void @_ZN5folly9FormatterILb0EJhEECI2NS_17BaseFormatterImplIS1_Lb0ESt16integer_sequenceImJLm0EEEJhEEEENS_5RangeIPKcEEOh(ptr noundef nonnull align 8 dereferenceable(17) %this, ptr %.coerce0, ptr %.coerce1, ptr noundef nonnull align 1 dereferenceable(1) %0) unnamed_addr #1 comdat align 2 {
entry:
  %1 = alloca %"class.folly::Range", align 8
  %this.addr = alloca ptr, align 8
  %.addr = alloca ptr, align 8
  %2 = getelementptr inbounds { ptr, ptr }, ptr %1, i32 0, i32 0
  store ptr %.coerce0, ptr %2, align 8
  %3 = getelementptr inbounds { ptr, ptr }, ptr %1, i32 0, i32 1
  store ptr %.coerce1, ptr %3, align 8
  store ptr %this, ptr %this.addr, align 8
  store ptr %0, ptr %.addr, align 8
  %this1 = load ptr, ptr %this.addr, align 8
  %4 = load ptr, ptr %.addr, align 8
  %5 = getelementptr inbounds { ptr, ptr }, ptr %1, i32 0, i32 0
  %6 = load ptr, ptr %5, align 8
  %7 = getelementptr inbounds { ptr, ptr }, ptr %1, i32 0, i32 1
  %8 = load ptr, ptr %7, align 8
  call void @_ZN5folly17BaseFormatterImplINS_9FormatterILb0EJhEEELb0ESt16integer_sequenceImJLm0EEEJhEEC2ENS_5RangeIPKcEEOh(ptr noundef nonnull align 8 dereferenceable(17) %this1, ptr %6, ptr %8, ptr noundef nonnull align 1 dereferenceable(1) %4)
  ret void
}

; Function Attrs: mustprogress nounwind uwtable
define linkonce_odr noundef i64 @_ZN5folly16constexpr_strlenIcEEmPKT_(ptr noundef %s) #2 comdat {
entry:
  %s.addr = alloca ptr, align 8
  store ptr %s, ptr %s.addr, align 8
  %0 = load ptr, ptr %s.addr, align 8
  %call = call noundef i64 @_ZN5folly6detail25constexpr_strlen_internalIcLm0EEEmPKT_i(ptr noundef %0, i32 noundef 0) #3
  ret i64 %call
}

; Function Attrs: mustprogress uwtable
define linkonce_odr void @_ZN5folly7sformatIJhEEENSt7__cxx1112basic_stringIcSt11char_traitsIcESaIcEEENS_5RangeIPKcEEDpOT_(ptr noalias sret(%"class.std::__cxx11::basic_string") align 8 %agg.result, ptr %fmt.coerce0, ptr %fmt.coerce1, ptr noundef nonnull align 1 dereferenceable(1) %args) #1 comdat {
entry:
  %result.ptr = alloca ptr, align 8
  %fmt = alloca %"class.folly::Range", align 8
  %args.addr = alloca ptr, align 8
  %ref.tmp = alloca %"class.folly::Formatter", align 8
  %agg.tmp = alloca %"class.folly::Range", align 8
  store ptr %agg.result, ptr %result.ptr, align 8
  %0 = getelementptr inbounds { ptr, ptr }, ptr %fmt, i32 0, i32 0
  store ptr %fmt.coerce0, ptr %0, align 8
  %1 = getelementptr inbounds { ptr, ptr }, ptr %fmt, i32 0, i32 1
  store ptr %fmt.coerce1, ptr %1, align 8
  store ptr %args, ptr %args.addr, align 8
  call void @llvm.memcpy.p0.p0.i64(ptr align 8 %agg.tmp, ptr align 8 %fmt, i64 16, i1 false)
  %2 = load ptr, ptr %args.addr, align 8
  %3 = getelementptr inbounds { ptr, ptr }, ptr %agg.tmp, i32 0, i32 0
  %4 = load ptr, ptr %3, align 8
  %5 = getelementptr inbounds { ptr, ptr }, ptr %agg.tmp, i32 0, i32 1
  %6 = load ptr, ptr %5, align 8
  call void @_ZN5folly9FormatterILb0EJhEECI2NS_17BaseFormatterImplIS1_Lb0ESt16integer_sequenceImJLm0EEEJhEEEENS_5RangeIPKcEEOh(ptr noundef nonnull align 8 dereferenceable(17) %ref.tmp, ptr %4, ptr %6, ptr noundef nonnull align 1 dereferenceable(1) %2)
  call void @_ZNK5folly17BaseFormatterImplINS_9FormatterILb0EJhEEELb0ESt16integer_sequenceImJLm0EEEJhEE3strB5cxx11Ev(ptr sret(%"class.std::__cxx11::basic_string") align 8 %agg.result, ptr noundef nonnull align 8 dereferenceable(17) %ref.tmp)
  ret void
}

; Function Attrs: mustprogress nounwind uwtable
define linkonce_odr void @_ZN5folly5RangeIPKcEC2ES2_(ptr noundef nonnull align 8 dereferenceable(16) %this, ptr noundef %str) unnamed_addr #2 comdat align 2 {
entry:
  %this.addr = alloca ptr, align 8
  %str.addr = alloca ptr, align 8
  store ptr %this, ptr %this.addr, align 8
  store ptr %str, ptr %str.addr, align 8
  %this1 = load ptr, ptr %this.addr, align 8
  %b_ = getelementptr inbounds %"class.folly::Range", ptr %this1, i32 0, i32 0
  %0 = load ptr, ptr %str.addr, align 8
  store ptr %0, ptr %b_, align 8
  %e_ = getelementptr inbounds %"class.folly::Range", ptr %this1, i32 0, i32 1
  %1 = load ptr, ptr %str.addr, align 8
  %2 = load ptr, ptr %str.addr, align 8
  %call = call noundef i64 @_ZN5folly16constexpr_strlenIcEEmPKT_(ptr noundef %2) #3
  %add.ptr = getelementptr inbounds i8, ptr %1, i64 %call
  store ptr %add.ptr, ptr %e_, align 8
  ret void
}

; Function Attrs: mustprogress nounwind uwtable
define linkonce_odr noundef ptr @_ZNK5folly5RangeIPKcE3endEv(ptr noundef nonnull align 8 dereferenceable(16) %this) #2 comdat align 2 {
entry:
  %this.addr = alloca ptr, align 8
  store ptr %this, ptr %this.addr, align 8
  %this1 = load ptr, ptr %this.addr, align 8
  %e_ = getelementptr inbounds %"class.folly::Range", ptr %this1, i32 0, i32 1
  %0 = load ptr, ptr %e_, align 8
  ret ptr %0
}

; Function Attrs: mustprogress nounwind uwtable
define linkonce_odr noundef ptr @_ZNK5folly5RangeIPKcE5beginEv(ptr noundef nonnull align 8 dereferenceable(16) %this) #2 comdat align 2 {
entry:
  %this.addr = alloca ptr, align 8
  store ptr %this, ptr %this.addr, align 8
  %this1 = load ptr, ptr %this.addr, align 8
  %b_ = getelementptr inbounds %"class.folly::Range", ptr %this1, i32 0, i32 0
  %0 = load ptr, ptr %b_, align 8
  ret ptr %0
}

; Function Attrs: mustprogress uwtable
define void @_ZN8proxygen6hexStrB5cxx11EN5folly5RangeIPKcEE(ptr noalias sret(%"class.std::__cxx11::basic_string") align 8 %agg.result, ptr %sp.coerce0, ptr %sp.coerce1) #1 personality ptr @__gxx_personality_v0 {
entry:
  %result.ptr = alloca ptr, align 8
  %sp = alloca %"class.folly::Range", align 8
  %nrvo = alloca i1, align 1
  %__range1 = alloca ptr, align 8
  %__begin1 = alloca ptr, align 8
  %exn.slot = alloca ptr, align 8
  %ehselector.slot = alloca i32, align 4
  %__end1 = alloca ptr, align 8
  %ch = alloca i8, align 1
  %ref.tmp = alloca %"class.std::__cxx11::basic_string", align 8
  %agg.tmp = alloca %"class.folly::Range", align 8
  %ref.tmp4 = alloca i8, align 1
  store ptr %agg.result, ptr %result.ptr, align 8
  %0 = getelementptr inbounds { ptr, ptr }, ptr %sp, i32 0, i32 0
  store ptr %sp.coerce0, ptr %0, align 8
  %1 = getelementptr inbounds { ptr, ptr }, ptr %sp, i32 0, i32 1
  store ptr %sp.coerce1, ptr %1, align 8
  store i1 false, ptr %nrvo, align 1
  call void @_ZNSt7__cxx1112basic_stringIcSt11char_traitsIcESaIcEEC1Ev(ptr noundef nonnull align 8 dereferenceable(32) %agg.result) #3
  store ptr %sp, ptr %__range1, align 8
  %2 = load ptr, ptr %__range1, align 8
  %call = invoke noundef ptr @_ZNK5folly5RangeIPKcE5beginEv(ptr noundef nonnull align 8 dereferenceable(16) %2)
          to label %invoke.cont unwind label %lpad

invoke.cont:                                      ; preds = %entry
  store ptr %call, ptr %__begin1, align 8
  %3 = load ptr, ptr %__range1, align 8
  %call2 = invoke noundef ptr @_ZNK5folly5RangeIPKcE3endEv(ptr noundef nonnull align 8 dereferenceable(16) %3)
          to label %invoke.cont1 unwind label %lpad

invoke.cont1:                                     ; preds = %invoke.cont
  store ptr %call2, ptr %__end1, align 8
  br label %for.cond

for.cond:                                         ; preds = %for.inc, %invoke.cont1
  %4 = load ptr, ptr %__begin1, align 8
  %5 = load ptr, ptr %__end1, align 8
  %cmp = icmp ne ptr %4, %5
  br i1 %cmp, label %for.body, label %for.end

for.body:                                         ; preds = %for.cond
  %6 = load ptr, ptr %__begin1, align 8
  %7 = load i8, ptr %6, align 1
  store i8 %7, ptr %ch, align 1
  invoke void @_ZN5folly5RangeIPKcEC2ES2_(ptr noundef nonnull align 8 dereferenceable(16) %agg.tmp, ptr noundef @.str)
          to label %invoke.cont3 unwind label %lpad

invoke.cont3:                                     ; preds = %for.body
  %8 = load i8, ptr %ch, align 1
  store i8 %8, ptr %ref.tmp4, align 1
  %9 = getelementptr inbounds { ptr, ptr }, ptr %agg.tmp, i32 0, i32 0
  %10 = load ptr, ptr %9, align 8
  %11 = getelementptr inbounds { ptr, ptr }, ptr %agg.tmp, i32 0, i32 1
  %12 = load ptr, ptr %11, align 8
  invoke void @_ZN5folly7sformatIJhEEENSt7__cxx1112basic_stringIcSt11char_traitsIcESaIcEEENS_5RangeIPKcEEDpOT_(ptr sret(%"class.std::__cxx11::basic_string") align 8 %ref.tmp, ptr %10, ptr %12, ptr noundef nonnull align 1 dereferenceable(1) %ref.tmp4)
          to label %invoke.cont5 unwind label %lpad

invoke.cont5:                                     ; preds = %invoke.cont3
  %call8 = invoke noundef nonnull align 8 dereferenceable(32) ptr @_ZNSt7__cxx1112basic_stringIcSt11char_traitsIcESaIcEE6appendERKS4_(ptr noundef nonnull align 8 dereferenceable(32) %agg.result, ptr noundef nonnull align 8 dereferenceable(32) %ref.tmp)
          to label %invoke.cont7 unwind label %lpad6

invoke.cont7:                                     ; preds = %invoke.cont5
  call void @_ZNSt7__cxx1112basic_stringIcSt11char_traitsIcESaIcEED1Ev(ptr noundef nonnull align 8 dereferenceable(32) %ref.tmp) #3
  br label %for.inc

for.inc:                                          ; preds = %invoke.cont7
  %13 = load ptr, ptr %__begin1, align 8
  %incdec.ptr = getelementptr inbounds i8, ptr %13, i32 1
  store ptr %incdec.ptr, ptr %__begin1, align 8
  br label %for.cond

lpad:                                             ; preds = %invoke.cont3, %for.body, %invoke.cont, %entry
  %14 = landingpad { ptr, i32 }
          cleanup
  %15 = extractvalue { ptr, i32 } %14, 0
  store ptr %15, ptr %exn.slot, align 8
  %16 = extractvalue { ptr, i32 } %14, 1
  store i32 %16, ptr %ehselector.slot, align 4
  br label %ehcleanup

lpad6:                                            ; preds = %invoke.cont5
  %17 = landingpad { ptr, i32 }
          cleanup
  %18 = extractvalue { ptr, i32 } %17, 0
  store ptr %18, ptr %exn.slot, align 8
  %19 = extractvalue { ptr, i32 } %17, 1
  store i32 %19, ptr %ehselector.slot, align 4
  call void @_ZNSt7__cxx1112basic_stringIcSt11char_traitsIcESaIcEED1Ev(ptr noundef nonnull align 8 dereferenceable(32) %ref.tmp) #3
  br label %ehcleanup

for.end:                                          ; preds = %for.cond
  store i1 true, ptr %nrvo, align 1
  %nrvo.val = load i1, ptr %nrvo, align 1
  br i1 %nrvo.val, label %nrvo.skipdtor, label %nrvo.unused

nrvo.unused:                                      ; preds = %for.end
  call void @_ZNSt7__cxx1112basic_stringIcSt11char_traitsIcESaIcEED1Ev(ptr noundef nonnull align 8 dereferenceable(32) %agg.result) #3
  br label %nrvo.skipdtor

nrvo.skipdtor:                                    ; preds = %nrvo.unused, %for.end
  ret void

ehcleanup:                                        ; preds = %lpad6, %lpad
  call void @_ZNSt7__cxx1112basic_stringIcSt11char_traitsIcESaIcEED1Ev(ptr noundef nonnull align 8 dereferenceable(32) %agg.result) #3
  br label %eh.resume

eh.resume:                                        ; preds = %ehcleanup
  %exn = load ptr, ptr %exn.slot, align 8
  %sel = load i32, ptr %ehselector.slot, align 4
  %lpad.val = insertvalue { ptr, i32 } poison, ptr %exn, 0
  %lpad.val9 = insertvalue { ptr, i32 } %lpad.val, i32 %sel, 1
  resume { ptr, i32 } %lpad.val9
}