; Function Attrs: mustprogress uwtable
define void @_ZN8proxygen6hexStrB5cxx11EN5folly5RangeIPKcEE(ptr noalias nonnull sret(%"class.std::__cxx11::basic_string") align 8 %agg.result, ptr readonly %sp.coerce0, ptr readnone %sp.coerce1) local_unnamed_addr #3 personality ptr @__gxx_personality_v0 {
entry:
  %widths.i.i.i.i = alloca [2 x i32], align 8
  %out.i.i.i = alloca %"struct.folly::detail::BaseFormatterAppendToString", align 8
  %ref.tmp.i = alloca %"class.folly::Formatter", align 8
  %ref.tmp = alloca %"class.std::__cxx11::basic_string", align 8
  tail call void @_ZNSt7__cxx1112basic_stringIcSt11char_traitsIcESaIcEEC1Ev(ptr noundef nonnull align 8 dereferenceable(32) %agg.result) #20
  %cmp.not6 = icmp eq ptr %sp.coerce0, %sp.coerce1
  br i1 %cmp.not6, label %nrvo.skipdtor, label %for.body.lr.ph

for.body.lr.ph:                                   ; preds = %entry
  %str.sroa.2.0.str_.sroa_idx.i.i.i = getelementptr inbounds i8, ptr %ref.tmp.i, i64 8
  %values_.i.i.i = getelementptr inbounds i8, ptr %ref.tmp.i, i64 16
  br label %for.body

for.body:                                         ; preds = %for.body.lr.ph, %invoke.cont7
  %__begin1.07 = phi ptr [ %sp.coerce0, %for.body.lr.ph ], [ %incdec.ptr, %invoke.cont7 ]
  %0 = load i8, ptr %__begin1.07, align 1
  call void @llvm.lifetime.start.p0(i64 24, ptr nonnull %ref.tmp.i)
  store ptr @.str, ptr %ref.tmp.i, align 8, !noalias !4
  store ptr getelementptr inbounds ([7 x i8], ptr @.str, i64 0, i64 6), ptr %str.sroa.2.0.str_.sroa_idx.i.i.i, align 8, !noalias !4
  store i8 %0, ptr %values_.i.i.i, align 8, !noalias !4
  call void @_ZNSt7__cxx1112basic_stringIcSt11char_traitsIcESaIcEEC1Ev(ptr noundef nonnull align 8 dereferenceable(32) %ref.tmp) #20
  call void @llvm.lifetime.start.p0(i64 8, ptr nonnull %out.i.i.i), !noalias !7
  store ptr %ref.tmp, ptr %out.i.i.i, align 8, !noalias !7
  call void @llvm.lifetime.start.p0(i64 8, ptr nonnull %widths.i.i.i.i), !noalias !7
  store i64 0, ptr %widths.i.i.i.i, align 8, !noalias !7
  %conv.i.i.i.i.i.i = zext i8 %0 to i32
  store i32 %conv.i.i.i.i.i.i, ptr %widths.i.i.i.i, align 8, !noalias !7
  invoke void @_ZN5folly6detail21baseFormatterCallImplILb0ELb0ENS0_27BaseFormatterAppendToStringINSt7__cxx1112basic_stringIcSt11char_traitsIcESaIcEEEEEEEvRT1_mPKiPFSt17integral_constantIbXT0_EERKNS0_17BaseFormatterBaseEmEPKPFvSI_RNS_9FormatArgESB_ESI_(ptr noundef nonnull align 8 dereferenceable(8) %out.i.i.i, i64 noundef 1, ptr noundef nonnull %widths.i.i.i.i, ptr noundef nonnull @_ZN5folly6detail17BaseFormatterBase13recordUsedArgERKS1_m, ptr noundef nonnull @_ZZNK5folly17BaseFormatterImplINS_9FormatterILb0EJhEEELb0ESt16integer_sequenceImJLm0EEEJhEEclINS_6detail27BaseFormatterAppendToStringINSt7__cxx1112basic_stringIcSt11char_traitsIcESaIcEEEEEEEvRT_E4funsB5cxx11, ptr noundef nonnull align 8 dereferenceable(16) %ref.tmp.i)
          to label %invoke.cont5 unwind label %lpad.i.i

lpad.i.i:                                         ; preds = %for.body
  %1 = landingpad { ptr, i32 }
          cleanup
  br label %ehcleanup

invoke.cont5:                                     ; preds = %for.body
  call void @llvm.lifetime.end.p0(i64 8, ptr nonnull %widths.i.i.i.i), !noalias !7
  call void @llvm.lifetime.end.p0(i64 8, ptr nonnull %out.i.i.i), !noalias !7
  call void @llvm.lifetime.end.p0(i64 24, ptr nonnull %ref.tmp.i)
  %call8 = invoke noundef nonnull align 8 dereferenceable(32) ptr @_ZNSt7__cxx1112basic_stringIcSt11char_traitsIcESaIcEE6appendERKS4_(ptr noundef nonnull align 8 dereferenceable(32) %agg.result, ptr noundef nonnull align 8 dereferenceable(32) %ref.tmp)
          to label %invoke.cont7 unwind label %lpad6

invoke.cont7:                                     ; preds = %invoke.cont5
  call void @_ZNSt7__cxx1112basic_stringIcSt11char_traitsIcESaIcEED1Ev(ptr noundef nonnull align 8 dereferenceable(32) %ref.tmp) #20
  %incdec.ptr = getelementptr inbounds i8, ptr %__begin1.07, i64 1
  %cmp.not = icmp eq ptr %incdec.ptr, %sp.coerce1
  br i1 %cmp.not, label %nrvo.skipdtor, label %for.body

lpad6:                                            ; preds = %invoke.cont5
  %2 = landingpad { ptr, i32 }
          cleanup
  br label %ehcleanup

nrvo.skipdtor:                                    ; preds = %invoke.cont7, %entry
  ret void

ehcleanup:                                        ; preds = %lpad.i.i, %lpad6
  %.pn = phi { ptr, i32 } [ %2, %lpad6 ], [ %1, %lpad.i.i ]
  call void @_ZNSt7__cxx1112basic_stringIcSt11char_traitsIcESaIcEED1Ev(ptr noundef nonnull align 8 dereferenceable(32) %ref.tmp) #20
  call void @_ZNSt7__cxx1112basic_stringIcSt11char_traitsIcESaIcEED1Ev(ptr noundef nonnull align 8 dereferenceable(32) %agg.result) #20
  resume { ptr, i32 } %.pn
}